target datalayout = "e-m:e-p270:32:32-p271:32:32-p272:64:64-i64:64-i128:128-f80:128-n8:16:32:64-S128"
target triple = "x86_64-pc-linux-gnu"

%struct.Agsym_s = type { %struct.dtlink_s_, ptr, ptr, i32, i8, i8, i8 }
%struct.dtlink_s_ = type { ptr, %union.anon.0 }
%union.anon.0 = type { ptr }
%struct.Agattr_s = type { %struct.Agrec_s, ptr, ptr }
%struct.Agrec_s = type { ptr, ptr }
%struct.dt_s_ = type { ptr, ptr, %struct.Dtdata_t, ptr, i32, ptr, ptr, ptr }
%struct.Dtdata_t = type { i32, ptr, %union.anon, i32, i32, i32 }
%union.anon = type { ptr }

@AgDataRecName = global ptr @.str, align 8

; Function Attrs: nounwind uwtable
define internal ptr @agdictsym(ptr noundef %0, ptr noundef %1) #0 {
  %3 = alloca ptr, align 8
  %4 = alloca ptr, align 8
  %5 = alloca %struct.Agsym_s, align 8
  store ptr %0, ptr %3, align 8, !tbaa !40
  store ptr %1, ptr %4, align 8, !tbaa !31
  call void @llvm.lifetime.start.p0(i64 40, ptr %5) #11
  %6 = load ptr, ptr %4, align 8, !tbaa !31
  %7 = getelementptr inbounds nuw %struct.Agsym_s, ptr %5, i32 0, i32 1
  store ptr %6, ptr %7, align 8, !tbaa !11
  %8 = load ptr, ptr %3, align 8, !tbaa !40
  %9 = getelementptr inbounds nuw %struct.dt_s_, ptr %8, i32 0, i32 0
  %10 = load ptr, ptr %9, align 8, !tbaa !41
  %11 = load ptr, ptr %3, align 8, !tbaa !40
  %12 = call ptr %10(ptr noundef %11, ptr noundef %5, i32 noundef 4)
  call void @llvm.lifetime.end.p0(i64 40, ptr %5) #11
  ret ptr %12
}

; Function Attrs: nounwind uwtable
define ptr @agattrrec(ptr noundef %0) #0 {
  %2 = alloca ptr, align 8
  store ptr %0, ptr %2, align 8, !tbaa !3
  %3 = load ptr, ptr %2, align 8, !tbaa !3
  %4 = load ptr, ptr @AgDataRecName, align 8, !tbaa !31
  %5 = call ptr @aggetrec(ptr noundef %3, ptr noundef %4, i32 noundef 0)
  ret ptr %5
}

; Function Attrs: nounwind uwtable
define ptr @agattrsym(ptr noundef %0, ptr noundef %1) #0 {
  %3 = alloca ptr, align 8
  %4 = alloca ptr, align 8
  %5 = alloca ptr, align 8
  %6 = alloca ptr, align 8
  store ptr %0, ptr %3, align 8, !tbaa !3
  store ptr %1, ptr %4, align 8, !tbaa !31
  call void @llvm.lifetime.start.p0(i64 8, ptr %5) #11
  call void @llvm.lifetime.start.p0(i64 8, ptr %6) #11
  %7 = load ptr, ptr %3, align 8, !tbaa !3
  %8 = call ptr @agattrrec(ptr noundef %7)
  store ptr %8, ptr %5, align 8, !tbaa !32
  %9 = load ptr, ptr %5, align 8, !tbaa !32
  %10 = icmp ne ptr %9, null
  br i1 %10, label %11, label %17

11:                                               ; preds = %2
  %12 = load ptr, ptr %5, align 8, !tbaa !32
  %13 = getelementptr inbounds nuw %struct.Agattr_s, ptr %12, i32 0, i32 1
  %14 = load ptr, ptr %13, align 8, !tbaa !34
  %15 = load ptr, ptr %4, align 8, !tbaa !31
  %16 = call ptr @agdictsym(ptr noundef %14, ptr noundef %15)
  store ptr %16, ptr %6, align 8, !tbaa !7
  br label %18

17:                                               ; preds = %2
  store ptr null, ptr %6, align 8, !tbaa !7
  br label %18

18:                                               ; preds = %17, %11
  %19 = load ptr, ptr %6, align 8, !tbaa !7
  call void @llvm.lifetime.end.p0(i64 8, ptr %6) #11
  call void @llvm.lifetime.end.p0(i64 8, ptr %5) #11
  ret ptr %19
}