; Function Attrs: nounwind uwtable
define ptr @agattrsym(ptr noundef %0, ptr noundef %1) local_unnamed_addr #0 {
  %3 = alloca %struct.Agsym_s, align 8
  %4 = load ptr, ptr @AgDataRecName, align 8, !tbaa !15
  %5 = tail call ptr @aggetrec(ptr noundef %0, ptr noundef %4, i32 noundef 0) #12
  %.not = icmp eq ptr %5, null
  br i1 %.not, label %12, label %6

6:                                                ; preds = %2
  %7 = getelementptr inbounds nuw i8, ptr %5, i64 16
  %8 = load ptr, ptr %7, align 8, !tbaa !16
  call void @llvm.lifetime.start.p0(i64 40, ptr nonnull %3) #12
  %9 = getelementptr inbounds nuw i8, ptr %3, i64 16
  store ptr %1, ptr %9, align 8, !tbaa !8
  %10 = load ptr, ptr %8, align 8, !tbaa !25
  %11 = call ptr %10(ptr noundef nonnull %8, ptr noundef nonnull %3, i32 noundef 4) #12
  call void @llvm.lifetime.end.p0(i64 40, ptr nonnull %3) #12
  br label %12

12:                                               ; preds = %2, %6
  %.0 = phi ptr [ %11, %6 ], [ null, %2 ]
  ret ptr %.0
}